ARM GAS  C:\Users\divya\AppData\Local\Temp\cc2nBUBk.s 			page 1


   1              		.syntax unified
   2              		.cpu cortex-m3
   3              		.fpu softvfp
   4              		.eabi_attribute 20, 1
   5              		.eabi_attribute 21, 1
   6              		.eabi_attribute 23, 3
   7              		.eabi_attribute 24, 1
   8              		.eabi_attribute 25, 1
   9              		.eabi_attribute 26, 1
  10              		.eabi_attribute 30, 1
  11              		.eabi_attribute 34, 1
  12              		.eabi_attribute 18, 4
  13              		.thumb
  14              		.syntax unified
  15              		.file	"Analyzer.c"
  16              		.text
  17              	.Ltext0:
  18              		.cfi_sections	.debug_frame
  19              		.section	.text.SysTick_Handler,"ax",%progbits
  20              		.align	2
  21              		.global	SysTick_Handler
  22              		.thumb
  23              		.thumb_func
  24              		.type	SysTick_Handler, %function
  25              	SysTick_Handler:
  26              	.LFB77:
  27              		.file 1 "Analyzer.c"
   1:Analyzer.c    **** /* ========================================
   2:Analyzer.c    ****  *
   3:Analyzer.c    ****  * Copyright YOUR COMPANY, THE YEAR
   4:Analyzer.c    ****  * All Rights Reserved
   5:Analyzer.c    ****  * UNPUBLISHED, LICENSED SOFTWARE.
   6:Analyzer.c    ****  *
   7:Analyzer.c    ****  * CONFIDENTIAL AND PROPRIETARY INFORMATION
   8:Analyzer.c    ****  * WHICH IS THE PROPERTY OF your company.
   9:Analyzer.c    ****  *
  10:Analyzer.c    ****  * ========================================
  11:Analyzer.c    **** */
  12:Analyzer.c    **** 
  13:Analyzer.c    **** /* [] END OF FILE */
  14:Analyzer.c    **** #include "project.h"
  15:Analyzer.c    **** #include "Analyzer.h"
  16:Analyzer.c    **** #include "string.h"
  17:Analyzer.c    **** #include "stdlib.h"
  18:Analyzer.c    **** #include "math.h"
  19:Analyzer.c    **** 
  20:Analyzer.c    **** /*This function definition is to initialze the DWT Counter and SYSTIC Counter
  21:Analyzer.c    **** 
  22:Analyzer.c    **** */
  23:Analyzer.c    **** //Extra Variables initialiyation
  24:Analyzer.c    **** volatile uint32_t timer  = 0;
  25:Analyzer.c    **** volatile uint32_t isPaused  = 0;
  26:Analyzer.c    **** 
  27:Analyzer.c    **** 
  28:Analyzer.c    **** void timing_Analyzer_init()
  29:Analyzer.c    **** {
  30:Analyzer.c    ****     CoreDebug->DEMCR |= CoreDebug_DEMCR_TRCENA_Msk;//This to enable the Tracebility mask
ARM GAS  C:\Users\divya\AppData\Local\Temp\cc2nBUBk.s 			page 2


  31:Analyzer.c    ****     
  32:Analyzer.c    ****     DWT->CTRL |= DWT_CTRL_CYCCNTENA_Msk;// This is to enable the Cyclic counter enable mas
  33:Analyzer.c    ****     
  34:Analyzer.c    ****     DWT->CYCCNT = 0;// restetting the timer
  35:Analyzer.c    ****     
  36:Analyzer.c    ****     CySysTickInit();
  37:Analyzer.c    ****     CySysTickSetCallback(0,SysTick_Handler);
  38:Analyzer.c    ****     CySysTickSetReload(24000-1);
  39:Analyzer.c    ****     
  40:Analyzer.c    **** }
  41:Analyzer.c    **** /* this function definition is to assing the reload value to provide the tickTime of 1 milli second
  42:Analyzer.c    **** * @param reloadValue is the value calculated based on our CPU Frequency to get the desires systick 
  43:Analyzer.c    **** * if the clock frequency id 24 MHZ to get the 1 ms of tick time we need reloadValue of 24,000
  44:Analyzer.c    **** * 26 MHZ means 26,000,000 cycles/second
  45:Analyzer.c    **** 
  46:Analyzer.c    **** 
  47:Analyzer.c    **** */
  48:Analyzer.c    **** 
  49:Analyzer.c    **** 
  50:Analyzer.c    **** /* this function is to initialize the structure members
  51:Analyzer.c    **** *@param uint16_t id : is an input represnts the id of the analyzer
  52:Analyzer.c    **** *@param Analyzer_t* analyzer is the strcure we are passing to the function as a constructor to init
  53:Analyzer.c    **** *@AnalyzerMode Mode this is the enum represeting the Mode of timing analysis such as DWT or systick
  54:Analyzer.c    **** *param void(*outputPin)(void) this is an function pointer points to the pin operations sunch as LED
  55:Analyzer.c    **** */
  56:Analyzer.c    **** 
  57:Analyzer.c    **** void Time_Analyzer_Create(Analyzer_t* me,uint8_t id,AnalyzerMode Mode,char* name)
  58:Analyzer.c    **** {
  59:Analyzer.c    ****     me->id = id;
  60:Analyzer.c    ****     me->Mode = Mode;
  61:Analyzer.c    ****     me->Status = STATUS_STOPPED;
  62:Analyzer.c    ****     me->StopCount = 0;
  63:Analyzer.c    ****     me->StartCount = 0;
  64:Analyzer.c    ****     me->PauseCycle = 0;
  65:Analyzer.c    ****     me->totalCycle = 0;
  66:Analyzer.c    ****    strncpy(me->name, name, sizeof(me->name)-1);// StrnCpy gives the length of the stringa nd itwill
  67:Analyzer.c    ****    me->name[sizeof(me->name)-1] = '\0';//assigning the last character as null character
  68:Analyzer.c    **** }
  69:Analyzer.c    **** /*
  70:Analyzer.c    **** This function definition starts the timing analyzer for DWY_CYCLE ONLY by starting the DWT CYCLE CO
  71:Analyzer.c    **** */
  72:Analyzer.c    **** void Analyzer_Start(Analyzer_t *me)
  73:Analyzer.c    **** {
  74:Analyzer.c    ****     char StrMsg[50];
  75:Analyzer.c    ****    // char Buffer[50];// Print the status of analyzer
  76:Analyzer.c    ****     if(me->Status == STATUS_STOPPED&&(me->Mode == DWT_Cycle_Counter || me->Mode == DWT_Cycle_Counte
  77:Analyzer.c    ****     {
  78:Analyzer.c    ****         
  79:Analyzer.c    ****         me->StartCount = DWT->CYCCNT;// The currentely counted CPU Cycles are stoored in the CycleC
  80:Analyzer.c    ****         utoa(me->StartCount,StrMsg,10);
  81:Analyzer.c    ****         UART_LOG_PutString(StrMsg);
  82:Analyzer.c    ****         UART_LOG_PutString("\r\n");
  83:Analyzer.c    ****         
  84:Analyzer.c    ****         if(me->id == RED_LED)
  85:Analyzer.c    ****         REDLED_START(1);
  86:Analyzer.c    ****         else if(me->id == GREEN_LED)
  87:Analyzer.c    ****         GREEN_LED_START();
ARM GAS  C:\Users\divya\AppData\Local\Temp\cc2nBUBk.s 			page 3


  88:Analyzer.c    ****         else if(me->id == YELLOW_LED)
  89:Analyzer.c    ****         YELLOWLED_START();
  90:Analyzer.c    ****         
  91:Analyzer.c    ****         me->totalCycle = 0;// resetting the total cycle 
  92:Analyzer.c    ****         me->Status = STATUS_RUNNING;
  93:Analyzer.c    ****         //sprintf(StrMsg,"Analyzer %s is Running",me->name);
  94:Analyzer.c    ****         //UART_LOG_PutString(StrMsg);
  95:Analyzer.c    ****     }
  96:Analyzer.c    ****     else if(me->Status == STATUS_STOPPED&&(me->Mode == SYSTICK || me->Mode == SYSTICK_Output_Pin))
  97:Analyzer.c    ****     {
  98:Analyzer.c    ****         CySysTickEnable();//Enabling the counter and it starts counting 
  99:Analyzer.c    ****         me->totalCycle = 0;
 100:Analyzer.c    ****         isPaused = 0;
 101:Analyzer.c    ****         me->StartCount = timer;
 102:Analyzer.c    ****         
 103:Analyzer.c    ****         utoa(me->StartCount,StrMsg,10);
 104:Analyzer.c    ****         UART_LOG_PutString(StrMsg);
 105:Analyzer.c    ****         UART_LOG_PutString("\r\n");
 106:Analyzer.c    ****         
 107:Analyzer.c    ****         if(me->id == RED_LED)
 108:Analyzer.c    ****         REDLED_START(1);
 109:Analyzer.c    ****         else if(me->id == GREEN_LED)
 110:Analyzer.c    ****         GREEN_LED_START();
 111:Analyzer.c    ****         else if(me->id == YELLOW_LED)
 112:Analyzer.c    ****         YELLOWLED_START();
 113:Analyzer.c    ****         
 114:Analyzer.c    ****         me->Status = STATUS_RUNNING;
 115:Analyzer.c    ****     }
 116:Analyzer.c    ****     
 117:Analyzer.c    **** }
 118:Analyzer.c    **** 
 119:Analyzer.c    **** /*
 120:Analyzer.c    **** this function is provides the definition for pausing the counter and reading the cycle count time t
 121:Analyzer.c    **** 
 122:Analyzer.c    **** */
 123:Analyzer.c    **** 
 124:Analyzer.c    **** void Analyzer_Pause(Analyzer_t *me)
 125:Analyzer.c    **** {
 126:Analyzer.c    ****     char StrMsg[50];// Variable to print the count in UART using utoa function
 127:Analyzer.c    ****     if(me->Status == STATUS_RUNNING && (me->Mode == DWT_Cycle_Counter || me->Mode == DWT_Cycle_Coun
 128:Analyzer.c    ****     {
 129:Analyzer.c    ****         me->PauseCycle = DWT->CYCCNT;//Reading the counter value when it is pasued and assigning it
 130:Analyzer.c    ****         utoa(me->PauseCycle,StrMsg,10);
 131:Analyzer.c    ****         UART_LOG_PutString(StrMsg);
 132:Analyzer.c    ****         UART_LOG_PutString("\r\n");
 133:Analyzer.c    ****         me->totalCycle = me->totalCycle +(me->PauseCycle - me->StartCount);// This is to calculate 
 134:Analyzer.c    ****         me->Status = STATUS_PAUSED;
 135:Analyzer.c    ****        // utoa(me->totalCycle,StrMsg,10);
 136:Analyzer.c    ****         //UART_LOG_PutString(StrMsg);
 137:Analyzer.c    ****         //UART_LOG_PutString("\r\n");
 138:Analyzer.c    ****         
 139:Analyzer.c    ****     }
 140:Analyzer.c    ****     else if(me->Status == STATUS_RUNNING &&(me->Mode == SYSTICK || me->Mode == SYSTICK_Output_Pin))
 141:Analyzer.c    ****     {
 142:Analyzer.c    ****     char strMsg[20];
 143:Analyzer.c    ****     me->PauseCycle = timer;
 144:Analyzer.c    ****     isPaused = 1;
ARM GAS  C:\Users\divya\AppData\Local\Temp\cc2nBUBk.s 			page 4


 145:Analyzer.c    ****     me->totalCycle = me->PauseCycle - me->StartCount;
 146:Analyzer.c    ****     //sprintf(strMsg,"Elapsed time when paused is %u\r\n",me->totalCycle);
 147:Analyzer.c    ****     //UART_LOG_PutString(strMsg);
 148:Analyzer.c    ****     CySysTickStop();
 149:Analyzer.c    ****     me->Status = STATUS_PAUSED;
 150:Analyzer.c    ****     //Pin_REDLED_Write(0);
 151:Analyzer.c    ****     }
 152:Analyzer.c    **** }
 153:Analyzer.c    **** 
 154:Analyzer.c    **** //Function definition to resum the analyzer
 155:Analyzer.c    **** void Analyzer_Resume(Analyzer_t *me)
 156:Analyzer.c    **** {
 157:Analyzer.c    ****     char strmsg[20];
 158:Analyzer.c    ****     if(me->Status == STATUS_PAUSED &&(me->Mode == DWT_Cycle_Counter || me->Mode == DWT_Cycle_Counte
 159:Analyzer.c    ****     {
 160:Analyzer.c    ****         me->StartCount = DWT->CYCCNT;//reading the counter value after resuming 
 161:Analyzer.c    ****         utoa(me->StartCount,strmsg,10);
 162:Analyzer.c    ****         UART_LOG_PutString(strmsg);
 163:Analyzer.c    ****         UART_LOG_PutString("\r\n");
 164:Analyzer.c    ****         /*
 165:Analyzer.c    ****         me->totalCycle = me->totalCycle +(me->PauseCycle - me->StartCount);
 166:Analyzer.c    ****         utoa(me->totalCycle,strmsg,10);
 167:Analyzer.c    ****         UART_LOG_PutString(strmsg);
 168:Analyzer.c    ****         UART_LOG_PutString("\r\n");
 169:Analyzer.c    ****         */
 170:Analyzer.c    ****         me->Status = STATUS_RUNNING;
 171:Analyzer.c    ****     }
 172:Analyzer.c    ****     else if(me->Status == STATUS_PAUSED &&(me->Mode == SYSTICK || me->Mode == SYSTICK_Output_Pin))
 173:Analyzer.c    ****     {
 174:Analyzer.c    ****         //Enabling the counter and it starts counting 
 175:Analyzer.c    ****         CySysTickEnable();
 176:Analyzer.c    ****         me->StartCount = timer;
 177:Analyzer.c    ****         isPaused = 0;
 178:Analyzer.c    ****         me->Status = STATUS_RUNNING;
 179:Analyzer.c    ****         //Printing Resume timing
 180:Analyzer.c    ****         utoa(me->StartCount,strmsg,10);
 181:Analyzer.c    ****         UART_LOG_PutString(strmsg);
 182:Analyzer.c    ****         UART_LOG_PutString("\r\n");
 183:Analyzer.c    ****     }
 184:Analyzer.c    ****     
 185:Analyzer.c    ****     
 186:Analyzer.c    **** }
 187:Analyzer.c    **** /*
 188:Analyzer.c    **** void Analyzer_Stop(Analyzer_t *me)
 189:Analyzer.c    **** {
 190:Analyzer.c    ****     
 191:Analyzer.c    ****     char StrMsg[20];
 192:Analyzer.c    ****     if(me->Status == STATUS_RUNNING || me->Status == STATUS_PAUSED)
 193:Analyzer.c    ****     {
 194:Analyzer.c    ****         if(me->Status == STATUS_RUNNING && (me->Mode == DWT_Cycle_Counter || me->Mode == DWT_Cycle_
 195:Analyzer.c    ****         {
 196:Analyzer.c    ****          me->StopCount = DWT->CYCCNT;// The currentely counted CPU Cycles are stoored in the CycleC
 197:Analyzer.c    ****    
 198:Analyzer.c    ****          utoa(me->StopCount,StrMsg,10);
 199:Analyzer.c    ****          UART_LOG_PutString(StrMsg);
 200:Analyzer.c    ****         UART_LOG_PutString("\r\n");
 201:Analyzer.c    ****         
ARM GAS  C:\Users\divya\AppData\Local\Temp\cc2nBUBk.s 			page 5


 202:Analyzer.c    ****         me->totalCycle = me->totalCycle+(me->StopCount - me->StartCount);
 203:Analyzer.c    ****         me->Status = STATUS_STOPPED;
 204:Analyzer.c    ****         
 205:Analyzer.c    ****         utoa(me->totalCycle,StrMsg,10);
 206:Analyzer.c    ****         UART_LOG_PutString(StrMsg);
 207:Analyzer.c    ****         UART_LOG_PutString("\r\n");
 208:Analyzer.c    ****         
 209:Analyzer.c    ****         if(me->id == RED_LED)
 210:Analyzer.c    ****         REDLED_STOP();
 211:Analyzer.c    ****         else if(me->id == GREEN_LED)
 212:Analyzer.c    ****         GREEN_LED_STOP();
 213:Analyzer.c    ****         else if(me->id == YELLOW_LED)
 214:Analyzer.c    ****         YELLOWLED_STOP();
 215:Analyzer.c    ****         }
 216:Analyzer.c    ****         else if(me->Status == STATUS_RUNNING && (me->Mode == SYSTICK || me->Mode == SYSTICK_Output_
 217:Analyzer.c    ****         {
 218:Analyzer.c    ****             me->PauseCycle= timer;
 219:Analyzer.c    ****             if(isPaused ==1)
 220:Analyzer.c    ****             {
 221:Analyzer.c    ****                 me->totalCycle = me->PauseCycle;
 222:Analyzer.c    ****             }
 223:Analyzer.c    ****             else
 224:Analyzer.c    ****             {
 225:Analyzer.c    ****                 me->totalCycle = me->totalCycle + (me->PauseCycle-me->StartCount);
 226:Analyzer.c    ****             }
 227:Analyzer.c    ****             utoa(me->totalCycle,StrMsg,10);
 228:Analyzer.c    ****             UART_LOG_PutString(StrMsg);
 229:Analyzer.c    ****             UART_LOG_PutString("\r\n");
 230:Analyzer.c    ****             CySysTickStop();
 231:Analyzer.c    ****         }
 232:Analyzer.c    ****         else if(me->Status == STATUS_PAUSED || (me->Mode == DWT_Cycle_Counter || me->Mode == DWT_Cy
 233:Analyzer.c    ****         {
 234:Analyzer.c    ****             me->StopCount = DWT->CYCCNT;// The currentely counted CPU Cycles are stoored in the Cyc
 235:Analyzer.c    ****             utoa(me->StartCount,StrMsg,10);
 236:Analyzer.c    ****             UART_LOG_PutString(StrMsg);
 237:Analyzer.c    ****             UART_LOG_PutString("\r\n");
 238:Analyzer.c    ****             
 239:Analyzer.c    ****             me->totalCycle = me->totalCycle+(me->PauseCycle - me->StopCount);
 240:Analyzer.c    ****             me->Status = STATUS_STOPPED;
 241:Analyzer.c    ****             
 242:Analyzer.c    ****             utoa(me->totalCycle,StrMsg,10);
 243:Analyzer.c    ****             UART_LOG_PutString(StrMsg);
 244:Analyzer.c    ****             UART_LOG_PutString("\r\n");
 245:Analyzer.c    ****         }
 246:Analyzer.c    ****     }
 247:Analyzer.c    **** }
 248:Analyzer.c    **** */
 249:Analyzer.c    **** 
 250:Analyzer.c    **** void Analyzer_Stop(Analyzer_t *me)
 251:Analyzer.c    **** {
 252:Analyzer.c    ****     char StrMsg[50];  // Increased buffer size for safety
 253:Analyzer.c    **** 
 254:Analyzer.c    ****     if (me->Status == STATUS_RUNNING || me->Status == STATUS_PAUSED)
 255:Analyzer.c    ****     {
 256:Analyzer.c    ****         // Handle DWT Cycle Counter Mode
 257:Analyzer.c    ****         if ((me->Mode == DWT_Cycle_Counter || me->Mode == DWT_Cycle_Counter_Output_Pin))
 258:Analyzer.c    ****         {
ARM GAS  C:\Users\divya\AppData\Local\Temp\cc2nBUBk.s 			page 6


 259:Analyzer.c    ****             me->StopCount = DWT->CYCCNT;  // Store current cycle count
 260:Analyzer.c    **** 
 261:Analyzer.c    ****             // Print stop count
 262:Analyzer.c    ****             utoa(me->StopCount, StrMsg, 10);
 263:Analyzer.c    ****             UART_LOG_PutString(StrMsg);
 264:Analyzer.c    ****             UART_LOG_PutString("\r\n");
 265:Analyzer.c    ****             
 266:Analyzer.c    ****             if (me->id == RED_LED)
 267:Analyzer.c    ****                 REDLED_STOP();
 268:Analyzer.c    ****             else if (me->id == GREEN_LED)
 269:Analyzer.c    ****                 GREEN_LED_STOP();
 270:Analyzer.c    ****             else if (me->id == YELLOW_LED)
 271:Analyzer.c    ****                 YELLOWLED_STOP();
 272:Analyzer.c    **** 
 273:Analyzer.c    ****             // Update total cycles
 274:Analyzer.c    ****             if (me->Status == STATUS_RUNNING)
 275:Analyzer.c    ****             {
 276:Analyzer.c    ****                 me->totalCycle += (me->StopCount - me->StartCount);
 277:Analyzer.c    ****             }
 278:Analyzer.c    ****             else  // STATUS_PAUSED
 279:Analyzer.c    ****             {
 280:Analyzer.c    ****                 me->totalCycle += (me->PauseCycle - me->StartCount);
 281:Analyzer.c    ****             }
 282:Analyzer.c    **** 
 283:Analyzer.c    ****             // Print total cycles
 284:Analyzer.c    ****             utoa(me->totalCycle, StrMsg, 10);
 285:Analyzer.c    ****             UART_LOG_PutString(StrMsg);
 286:Analyzer.c    ****             UART_LOG_PutString("\r\n");
 287:Analyzer.c    **** 
 288:Analyzer.c    ****             // Stop the LED if used
 289:Analyzer.c    **** //            if (me->id == RED_LED)
 290:Analyzer.c    **** //                REDLED_STOP();
 291:Analyzer.c    **** //            else if (me->id == GREEN_LED)
 292:Analyzer.c    **** //                GREEN_LED_STOP();
 293:Analyzer.c    **** //            else if (me->id == YELLOW_LED)
 294:Analyzer.c    **** //                YELLOWLED_STOP();
 295:Analyzer.c    **** 
 296:Analyzer.c    ****             // Update status
 297:Analyzer.c    ****             me->Status = STATUS_STOPPED;
 298:Analyzer.c    ****         }
 299:Analyzer.c    ****         // Handle SysTick Mode
 300:Analyzer.c    ****         else if (me->Mode == SYSTICK || me->Mode == SYSTICK_Output_Pin)
 301:Analyzer.c    ****         {
 302:Analyzer.c    ****             me->PauseCycle = timer;  // Assume 'timer' holds the current SysTick value
 303:Analyzer.c    ****             
 304:Analyzer.c    ****             utoa(me->PauseCycle, StrMsg, 10);
 305:Analyzer.c    ****             UART_LOG_PutString(StrMsg);
 306:Analyzer.c    ****             UART_LOG_PutString("\r\n");
 307:Analyzer.c    ****             
 308:Analyzer.c    ****             // Calculate total cycles
 309:Analyzer.c    ****             if (isPaused == 1)
 310:Analyzer.c    ****             {
 311:Analyzer.c    ****                 me->totalCycle = me->PauseCycle;
 312:Analyzer.c    ****             }
 313:Analyzer.c    ****             else
 314:Analyzer.c    ****             {
 315:Analyzer.c    ****                 me->totalCycle += (me->PauseCycle - me->StartCount);
ARM GAS  C:\Users\divya\AppData\Local\Temp\cc2nBUBk.s 			page 7


 316:Analyzer.c    ****             }
 317:Analyzer.c    **** 
 318:Analyzer.c    ****             // Print total cycles
 319:Analyzer.c    ****             utoa(me->totalCycle, StrMsg, 10);
 320:Analyzer.c    ****             UART_LOG_PutString(StrMsg);
 321:Analyzer.c    ****             UART_LOG_PutString("\r\n");
 322:Analyzer.c    ****             
 323:Analyzer.c    ****             
 324:Analyzer.c    **** 
 325:Analyzer.c    ****             // Stop SysTick
 326:Analyzer.c    ****             CySysTickStop();
 327:Analyzer.c    **** 
 328:Analyzer.c    ****              //Stop the LED if used
 329:Analyzer.c    ****             if (me->id == RED_LED)
 330:Analyzer.c    ****                 REDLED_STOP();
 331:Analyzer.c    ****             else if (me->id == GREEN_LED)
 332:Analyzer.c    ****                 GREEN_LED_STOP();
 333:Analyzer.c    ****             else if (me->id == YELLOW_LED)
 334:Analyzer.c    ****                 YELLOWLED_STOP();
 335:Analyzer.c    **** 
 336:Analyzer.c    ****             // Update status
 337:Analyzer.c    ****             me->Status = STATUS_STOPPED;
 338:Analyzer.c    ****         }
 339:Analyzer.c    ****     }
 340:Analyzer.c    ****   
 341:Analyzer.c    **** }
 342:Analyzer.c    **** // Tp print the status of Analyzers
 343:Analyzer.c    **** void Analyzer_printStatus(Analyzer_t *me)
 344:Analyzer.c    **** {
 345:Analyzer.c    ****     char statusMsg[50];
 346:Analyzer.c    ****     if(me->Status == STATUS_RUNNING)
 347:Analyzer.c    ****     {
 348:Analyzer.c    ****         if(me->Status == STATUS_PAUSED)
 349:Analyzer.c    ****         sprintf(statusMsg,"Analyzer is Paused");
 350:Analyzer.c    ****         else
 351:Analyzer.c    ****         sprintf(statusMsg,"Analyzer is Running");
 352:Analyzer.c    ****     }
 353:Analyzer.c    ****     else
 354:Analyzer.c    ****     {
 355:Analyzer.c    ****         sprintf(statusMsg,"Analyzer is Stopped");
 356:Analyzer.c    ****     }
 357:Analyzer.c    ****     
 358:Analyzer.c    ****     UART_LOG_PutString(statusMsg);
 359:Analyzer.c    **** 
 360:Analyzer.c    **** }
 361:Analyzer.c    **** 
 362:Analyzer.c    **** 
 363:Analyzer.c    **** void test_cycle_counter() 
 364:Analyzer.c    **** {
 365:Analyzer.c    ****     DWT->CYCCNT = 0; // Reset counter
 366:Analyzer.c    ****     for (volatile int i = 0; i < 100000; i++) {
 367:Analyzer.c    ****         // Just a busy loop
 368:Analyzer.c    ****     }
 369:Analyzer.c    ****     uint32_t count = DWT->CYCCNT;
 370:Analyzer.c    ****     char buffer[20];
 371:Analyzer.c    ****     utoa(count, buffer, 10);
 372:Analyzer.c    ****     UART_LOG_PutString(buffer);
ARM GAS  C:\Users\divya\AppData\Local\Temp\cc2nBUBk.s 			page 8


 373:Analyzer.c    ****     UART_LOG_PutString("\r\n");
 374:Analyzer.c    **** }
 375:Analyzer.c    **** void REDLED_START()
 376:Analyzer.c    **** {
 377:Analyzer.c    ****     Pin_LEDRED_Write(1);
 378:Analyzer.c    **** }
 379:Analyzer.c    **** void GREEN_LED_START()
 380:Analyzer.c    **** {
 381:Analyzer.c    ****     Pin_LEDGREEN_Write(1);
 382:Analyzer.c    **** }
 383:Analyzer.c    **** void YELLOWLED_START()
 384:Analyzer.c    **** {
 385:Analyzer.c    ****     Pin_LEDYELLOW_Write(1);
 386:Analyzer.c    **** }
 387:Analyzer.c    **** void REDLED_STOP()
 388:Analyzer.c    **** {
 389:Analyzer.c    ****     Pin_LEDRED_Write(0);
 390:Analyzer.c    **** }
 391:Analyzer.c    **** void GREEN_LED_STOP()
 392:Analyzer.c    **** {
 393:Analyzer.c    ****     Pin_LEDGREEN_Write(0);
 394:Analyzer.c    **** }
 395:Analyzer.c    **** void YELLOWLED_STOP()
 396:Analyzer.c    **** {
 397:Analyzer.c    ****     Pin_LEDYELLOW_Write(0);
 398:Analyzer.c    **** }
 399:Analyzer.c    **** 
 400:Analyzer.c    **** //Systick handle which increments every specified time 
 401:Analyzer.c    **** void SysTick_Handler()
 402:Analyzer.c    **** {
  28              		.loc 1 402 0
  29              		.cfi_startproc
  30              		@ args = 0, pretend = 0, frame = 0
  31              		@ frame_needed = 0, uses_anonymous_args = 0
  32              		@ link register save eliminated.
 403:Analyzer.c    ****      
 404:Analyzer.c    ****     timer++;
  33              		.loc 1 404 0
  34 0000 024A     		ldr	r2, .L2
  35 0002 1368     		ldr	r3, [r2]
  36 0004 0133     		adds	r3, r3, #1
  37 0006 1360     		str	r3, [r2]
  38 0008 7047     		bx	lr
  39              	.L3:
  40 000a 00BF     		.align	2
  41              	.L2:
  42 000c 00000000 		.word	.LANCHOR0
  43              		.cfi_endproc
  44              	.LFE77:
  45              		.size	SysTick_Handler, .-SysTick_Handler
  46              		.section	.text.timing_Analyzer_init,"ax",%progbits
  47              		.align	2
  48              		.global	timing_Analyzer_init
  49              		.thumb
  50              		.thumb_func
  51              		.type	timing_Analyzer_init, %function
  52              	timing_Analyzer_init:
ARM GAS  C:\Users\divya\AppData\Local\Temp\cc2nBUBk.s 			page 9


  53              	.LFB63:
  29:Analyzer.c    ****     CoreDebug->DEMCR |= CoreDebug_DEMCR_TRCENA_Msk;//This to enable the Tracebility mask
  54              		.loc 1 29 0
  55              		.cfi_startproc
  56              		@ args = 0, pretend = 0, frame = 0
  57              		@ frame_needed = 0, uses_anonymous_args = 0
  58 0000 10B5     		push	{r4, lr}
  59              		.cfi_def_cfa_offset 8
  60              		.cfi_offset 4, -8
  61              		.cfi_offset 14, -4
  30:Analyzer.c    ****     
  62              		.loc 1 30 0
  63 0002 0B4A     		ldr	r2, .L6
  64 0004 D368     		ldr	r3, [r2, #12]
  65 0006 43F08073 		orr	r3, r3, #16777216
  66 000a D360     		str	r3, [r2, #12]
  32:Analyzer.c    ****     
  67              		.loc 1 32 0
  68 000c 094B     		ldr	r3, .L6+4
  69 000e 1A68     		ldr	r2, [r3]
  70 0010 42F00102 		orr	r2, r2, #1
  71 0014 1A60     		str	r2, [r3]
  34:Analyzer.c    ****     
  72              		.loc 1 34 0
  73 0016 0024     		movs	r4, #0
  74 0018 5C60     		str	r4, [r3, #4]
  36:Analyzer.c    ****     CySysTickSetCallback(0,SysTick_Handler);
  75              		.loc 1 36 0
  76 001a FFF7FEFF 		bl	CySysTickInit
  77              	.LVL0:
  37:Analyzer.c    ****     CySysTickSetReload(24000-1);
  78              		.loc 1 37 0
  79 001e 0649     		ldr	r1, .L6+8
  80 0020 2046     		mov	r0, r4
  81 0022 FFF7FEFF 		bl	CySysTickSetCallback
  82              	.LVL1:
  38:Analyzer.c    ****     
  83              		.loc 1 38 0
  84 0026 45F6BF50 		movw	r0, #23999
  85 002a FFF7FEFF 		bl	CySysTickSetReload
  86              	.LVL2:
  87 002e 10BD     		pop	{r4, pc}
  88              	.L7:
  89              		.align	2
  90              	.L6:
  91 0030 F0ED00E0 		.word	-536810000
  92 0034 001000E0 		.word	-536866816
  93 0038 00000000 		.word	SysTick_Handler
  94              		.cfi_endproc
  95              	.LFE63:
  96              		.size	timing_Analyzer_init, .-timing_Analyzer_init
  97              		.section	.text.Time_Analyzer_Create,"ax",%progbits
  98              		.align	2
  99              		.global	Time_Analyzer_Create
 100              		.thumb
 101              		.thumb_func
 102              		.type	Time_Analyzer_Create, %function
ARM GAS  C:\Users\divya\AppData\Local\Temp\cc2nBUBk.s 			page 10


 103              	Time_Analyzer_Create:
 104              	.LFB64:
  58:Analyzer.c    ****     me->id = id;
 105              		.loc 1 58 0
 106              		.cfi_startproc
 107              		@ args = 0, pretend = 0, frame = 0
 108              		@ frame_needed = 0, uses_anonymous_args = 0
 109              	.LVL3:
 110 0000 38B5     		push	{r3, r4, r5, lr}
 111              		.cfi_def_cfa_offset 16
 112              		.cfi_offset 3, -16
 113              		.cfi_offset 4, -12
 114              		.cfi_offset 5, -8
 115              		.cfi_offset 14, -4
 116 0002 0446     		mov	r4, r0
  59:Analyzer.c    ****     me->Mode = Mode;
 117              		.loc 1 59 0
 118 0004 0170     		strb	r1, [r0]
  60:Analyzer.c    ****     me->Status = STATUS_STOPPED;
 119              		.loc 1 60 0
 120 0006 0276     		strb	r2, [r0, #24]
  61:Analyzer.c    ****     me->StopCount = 0;
 121              		.loc 1 61 0
 122 0008 0222     		movs	r2, #2
 123              	.LVL4:
 124 000a 4276     		strb	r2, [r0, #25]
  62:Analyzer.c    ****     me->StartCount = 0;
 125              		.loc 1 62 0
 126 000c 0025     		movs	r5, #0
 127 000e C561     		str	r5, [r0, #28]
  63:Analyzer.c    ****     me->PauseCycle = 0;
 128              		.loc 1 63 0
 129 0010 0562     		str	r5, [r0, #32]
  64:Analyzer.c    ****     me->totalCycle = 0;
 130              		.loc 1 64 0
 131 0012 4562     		str	r5, [r0, #36]
  65:Analyzer.c    ****    strncpy(me->name, name, sizeof(me->name)-1);// StrnCpy gives the length of the stringa nd itwill
 132              		.loc 1 65 0
 133 0014 8562     		str	r5, [r0, #40]
  66:Analyzer.c    ****    me->name[sizeof(me->name)-1] = '\0';//assigning the last character as null character
 134              		.loc 1 66 0
 135 0016 1322     		movs	r2, #19
 136 0018 1946     		mov	r1, r3
 137              	.LVL5:
 138 001a 0430     		adds	r0, r0, #4
 139              	.LVL6:
 140 001c FFF7FEFF 		bl	strncpy
 141              	.LVL7:
  67:Analyzer.c    **** }
 142              		.loc 1 67 0
 143 0020 E575     		strb	r5, [r4, #23]
 144 0022 38BD     		pop	{r3, r4, r5, pc}
 145              		.cfi_endproc
 146              	.LFE64:
 147              		.size	Time_Analyzer_Create, .-Time_Analyzer_Create
 148              		.section	.text.Analyzer_Pause,"ax",%progbits
 149              		.align	2
ARM GAS  C:\Users\divya\AppData\Local\Temp\cc2nBUBk.s 			page 11


 150              		.global	Analyzer_Pause
 151              		.thumb
 152              		.thumb_func
 153              		.type	Analyzer_Pause, %function
 154              	Analyzer_Pause:
 155              	.LFB66:
 125:Analyzer.c    ****     char StrMsg[50];// Variable to print the count in UART using utoa function
 156              		.loc 1 125 0
 157              		.cfi_startproc
 158              		@ args = 0, pretend = 0, frame = 56
 159              		@ frame_needed = 0, uses_anonymous_args = 0
 160              	.LVL8:
 161 0000 30B5     		push	{r4, r5, lr}
 162              		.cfi_def_cfa_offset 12
 163              		.cfi_offset 4, -12
 164              		.cfi_offset 5, -8
 165              		.cfi_offset 14, -4
 166 0002 8FB0     		sub	sp, sp, #60
 167              		.cfi_def_cfa_offset 72
 168 0004 0446     		mov	r4, r0
 127:Analyzer.c    ****     {
 169              		.loc 1 127 0
 170 0006 437E     		ldrb	r3, [r0, #25]	@ zero_extendqisi2
 171 0008 C3B9     		cbnz	r3, .L11
 127:Analyzer.c    ****     {
 172              		.loc 1 127 0 is_stmt 0 discriminator 1
 173 000a 027E     		ldrb	r2, [r0, #24]	@ zero_extendqisi2
 174 000c 012A     		cmp	r2, #1
 175 000e 15D8     		bhi	.L11
 129:Analyzer.c    ****         utoa(me->PauseCycle,StrMsg,10);
 176              		.loc 1 129 0 is_stmt 1
 177 0010 144B     		ldr	r3, .L14
 178 0012 5868     		ldr	r0, [r3, #4]
 179              	.LVL9:
 180 0014 6062     		str	r0, [r4, #36]
 130:Analyzer.c    ****         UART_LOG_PutString(StrMsg);
 181              		.loc 1 130 0
 182 0016 0A22     		movs	r2, #10
 183 0018 01A9     		add	r1, sp, #4
 184 001a FFF7FEFF 		bl	utoa
 185              	.LVL10:
 131:Analyzer.c    ****         UART_LOG_PutString("\r\n");
 186              		.loc 1 131 0
 187 001e 01A8     		add	r0, sp, #4
 188 0020 FFF7FEFF 		bl	UART_LOG_PutString
 189              	.LVL11:
 132:Analyzer.c    ****         me->totalCycle = me->totalCycle +(me->PauseCycle - me->StartCount);// This is to calculate 
 190              		.loc 1 132 0
 191 0024 1048     		ldr	r0, .L14+4
 192 0026 FFF7FEFF 		bl	UART_LOG_PutString
 193              	.LVL12:
 133:Analyzer.c    ****         me->Status = STATUS_PAUSED;
 194              		.loc 1 133 0
 195 002a A26A     		ldr	r2, [r4, #40]
 196 002c 636A     		ldr	r3, [r4, #36]
 197 002e 216A     		ldr	r1, [r4, #32]
 198 0030 5B1A     		subs	r3, r3, r1
ARM GAS  C:\Users\divya\AppData\Local\Temp\cc2nBUBk.s 			page 12


 199 0032 1344     		add	r3, r3, r2
 200 0034 A362     		str	r3, [r4, #40]
 134:Analyzer.c    ****        // utoa(me->totalCycle,StrMsg,10);
 201              		.loc 1 134 0
 202 0036 0123     		movs	r3, #1
 203 0038 6376     		strb	r3, [r4, #25]
 204 003a 10E0     		b	.L10
 205              	.LVL13:
 206              	.L11:
 140:Analyzer.c    ****     {
 207              		.loc 1 140 0
 208 003c 7BB9     		cbnz	r3, .L10
 140:Analyzer.c    ****     {
 209              		.loc 1 140 0 is_stmt 0 discriminator 1
 210 003e 237E     		ldrb	r3, [r4, #24]	@ zero_extendqisi2
 211 0040 023B     		subs	r3, r3, #2
 212 0042 DBB2     		uxtb	r3, r3
 213 0044 012B     		cmp	r3, #1
 214 0046 0AD8     		bhi	.L10
 215              	.LBB2:
 143:Analyzer.c    ****     isPaused = 1;
 216              		.loc 1 143 0 is_stmt 1
 217 0048 084A     		ldr	r2, .L14+8
 218 004a 1368     		ldr	r3, [r2]
 219 004c 6362     		str	r3, [r4, #36]
 144:Analyzer.c    ****     me->totalCycle = me->PauseCycle - me->StartCount;
 220              		.loc 1 144 0
 221 004e 0125     		movs	r5, #1
 222 0050 5560     		str	r5, [r2, #4]
 145:Analyzer.c    ****     //sprintf(strMsg,"Elapsed time when paused is %u\r\n",me->totalCycle);
 223              		.loc 1 145 0
 224 0052 226A     		ldr	r2, [r4, #32]
 225 0054 9B1A     		subs	r3, r3, r2
 226 0056 A362     		str	r3, [r4, #40]
 148:Analyzer.c    ****     me->Status = STATUS_PAUSED;
 227              		.loc 1 148 0
 228 0058 FFF7FEFF 		bl	CySysTickStop
 229              	.LVL14:
 149:Analyzer.c    ****     //Pin_REDLED_Write(0);
 230              		.loc 1 149 0
 231 005c 6576     		strb	r5, [r4, #25]
 232              	.L10:
 233              	.LBE2:
 152:Analyzer.c    **** 
 234              		.loc 1 152 0
 235 005e 0FB0     		add	sp, sp, #60
 236              		.cfi_def_cfa_offset 12
 237              		@ sp needed
 238 0060 30BD     		pop	{r4, r5, pc}
 239              	.LVL15:
 240              	.L15:
 241 0062 00BF     		.align	2
 242              	.L14:
 243 0064 001000E0 		.word	-536866816
 244 0068 00000000 		.word	.LC0
 245 006c 00000000 		.word	.LANCHOR0
 246              		.cfi_endproc
ARM GAS  C:\Users\divya\AppData\Local\Temp\cc2nBUBk.s 			page 13


 247              	.LFE66:
 248              		.size	Analyzer_Pause, .-Analyzer_Pause
 249              		.section	.text.Analyzer_Resume,"ax",%progbits
 250              		.align	2
 251              		.global	Analyzer_Resume
 252              		.thumb
 253              		.thumb_func
 254              		.type	Analyzer_Resume, %function
 255              	Analyzer_Resume:
 256              	.LFB67:
 156:Analyzer.c    ****     char strmsg[20];
 257              		.loc 1 156 0
 258              		.cfi_startproc
 259              		@ args = 0, pretend = 0, frame = 24
 260              		@ frame_needed = 0, uses_anonymous_args = 0
 261              	.LVL16:
 262 0000 10B5     		push	{r4, lr}
 263              		.cfi_def_cfa_offset 8
 264              		.cfi_offset 4, -8
 265              		.cfi_offset 14, -4
 266 0002 86B0     		sub	sp, sp, #24
 267              		.cfi_def_cfa_offset 32
 268 0004 0446     		mov	r4, r0
 158:Analyzer.c    ****     {
 269              		.loc 1 158 0
 270 0006 437E     		ldrb	r3, [r0, #25]	@ zero_extendqisi2
 271 0008 012B     		cmp	r3, #1
 272 000a 12D1     		bne	.L17
 158:Analyzer.c    ****     {
 273              		.loc 1 158 0 is_stmt 0 discriminator 1
 274 000c 027E     		ldrb	r2, [r0, #24]	@ zero_extendqisi2
 275 000e 012A     		cmp	r2, #1
 276 0010 0FD8     		bhi	.L17
 160:Analyzer.c    ****         utoa(me->StartCount,strmsg,10);
 277              		.loc 1 160 0 is_stmt 1
 278 0012 154B     		ldr	r3, .L20
 279 0014 5868     		ldr	r0, [r3, #4]
 280              	.LVL17:
 281 0016 2062     		str	r0, [r4, #32]
 161:Analyzer.c    ****         UART_LOG_PutString(strmsg);
 282              		.loc 1 161 0
 283 0018 0A22     		movs	r2, #10
 284 001a 01A9     		add	r1, sp, #4
 285 001c FFF7FEFF 		bl	utoa
 286              	.LVL18:
 162:Analyzer.c    ****         UART_LOG_PutString("\r\n");
 287              		.loc 1 162 0
 288 0020 01A8     		add	r0, sp, #4
 289 0022 FFF7FEFF 		bl	UART_LOG_PutString
 290              	.LVL19:
 163:Analyzer.c    ****         /*
 291              		.loc 1 163 0
 292 0026 1148     		ldr	r0, .L20+4
 293 0028 FFF7FEFF 		bl	UART_LOG_PutString
 294              	.LVL20:
 170:Analyzer.c    ****     }
 295              		.loc 1 170 0
ARM GAS  C:\Users\divya\AppData\Local\Temp\cc2nBUBk.s 			page 14


 296 002c 0023     		movs	r3, #0
 297 002e 6376     		strb	r3, [r4, #25]
 298 0030 18E0     		b	.L16
 299              	.LVL21:
 300              	.L17:
 172:Analyzer.c    ****     {
 301              		.loc 1 172 0
 302 0032 012B     		cmp	r3, #1
 303 0034 16D1     		bne	.L16
 172:Analyzer.c    ****     {
 304              		.loc 1 172 0 is_stmt 0 discriminator 1
 305 0036 237E     		ldrb	r3, [r4, #24]	@ zero_extendqisi2
 306 0038 023B     		subs	r3, r3, #2
 307 003a DBB2     		uxtb	r3, r3
 308 003c 012B     		cmp	r3, #1
 309 003e 11D8     		bhi	.L16
 175:Analyzer.c    ****         me->StartCount = timer;
 310              		.loc 1 175 0 is_stmt 1
 311 0040 FFF7FEFF 		bl	CySysTickEnable
 312              	.LVL22:
 176:Analyzer.c    ****         isPaused = 0;
 313              		.loc 1 176 0
 314 0044 0A4A     		ldr	r2, .L20+8
 315 0046 1068     		ldr	r0, [r2]
 316 0048 2062     		str	r0, [r4, #32]
 177:Analyzer.c    ****         me->Status = STATUS_RUNNING;
 317              		.loc 1 177 0
 318 004a 0023     		movs	r3, #0
 319 004c 5360     		str	r3, [r2, #4]
 178:Analyzer.c    ****         //Printing Resume timing
 320              		.loc 1 178 0
 321 004e 6376     		strb	r3, [r4, #25]
 180:Analyzer.c    ****         UART_LOG_PutString(strmsg);
 322              		.loc 1 180 0
 323 0050 0A22     		movs	r2, #10
 324 0052 01A9     		add	r1, sp, #4
 325 0054 FFF7FEFF 		bl	utoa
 326              	.LVL23:
 181:Analyzer.c    ****         UART_LOG_PutString("\r\n");
 327              		.loc 1 181 0
 328 0058 01A8     		add	r0, sp, #4
 329 005a FFF7FEFF 		bl	UART_LOG_PutString
 330              	.LVL24:
 182:Analyzer.c    ****     }
 331              		.loc 1 182 0
 332 005e 0348     		ldr	r0, .L20+4
 333 0060 FFF7FEFF 		bl	UART_LOG_PutString
 334              	.LVL25:
 335              	.L16:
 186:Analyzer.c    **** /*
 336              		.loc 1 186 0
 337 0064 06B0     		add	sp, sp, #24
 338              		.cfi_def_cfa_offset 8
 339              		@ sp needed
 340 0066 10BD     		pop	{r4, pc}
 341              	.LVL26:
 342              	.L21:
ARM GAS  C:\Users\divya\AppData\Local\Temp\cc2nBUBk.s 			page 15


 343              		.align	2
 344              	.L20:
 345 0068 001000E0 		.word	-536866816
 346 006c 00000000 		.word	.LC0
 347 0070 00000000 		.word	.LANCHOR0
 348              		.cfi_endproc
 349              	.LFE67:
 350              		.size	Analyzer_Resume, .-Analyzer_Resume
 351              		.section	.text.Analyzer_printStatus,"ax",%progbits
 352              		.align	2
 353              		.global	Analyzer_printStatus
 354              		.thumb
 355              		.thumb_func
 356              		.type	Analyzer_printStatus, %function
 357              	Analyzer_printStatus:
 358              	.LFB69:
 344:Analyzer.c    ****     char statusMsg[50];
 359              		.loc 1 344 0
 360              		.cfi_startproc
 361              		@ args = 0, pretend = 0, frame = 56
 362              		@ frame_needed = 0, uses_anonymous_args = 0
 363              	.LVL27:
 364 0000 30B5     		push	{r4, r5, lr}
 365              		.cfi_def_cfa_offset 12
 366              		.cfi_offset 4, -12
 367              		.cfi_offset 5, -8
 368              		.cfi_offset 14, -4
 369 0002 8FB0     		sub	sp, sp, #60
 370              		.cfi_def_cfa_offset 72
 346:Analyzer.c    ****     {
 371              		.loc 1 346 0
 372 0004 437E     		ldrb	r3, [r0, #25]	@ zero_extendqisi2
 373 0006 93B9     		cbnz	r3, .L23
 348:Analyzer.c    ****         sprintf(statusMsg,"Analyzer is Paused");
 374              		.loc 1 348 0
 375 0008 012B     		cmp	r3, #1
 376 000a 09D1     		bne	.L24
 377              	.LBB3:
 349:Analyzer.c    ****         else
 378              		.loc 1 349 0
 379 000c 01AC     		add	r4, sp, #4
 380 000e 0D4D     		ldr	r5, .L27
 381 0010 0FCD     		ldmia	r5!, {r0, r1, r2, r3}
 382              	.LVL28:
 383 0012 0FC4     		stmia	r4!, {r0, r1, r2, r3}
 384 0014 2B68     		ldr	r3, [r5]
 385 0016 24F8023B 		strh	r3, [r4], #2	@ movhi
 386 001a 1B0C     		lsrs	r3, r3, #16
 387 001c 2370     		strb	r3, [r4]
 388              	.LBE3:
 389 001e 0CE0     		b	.L25
 390              	.LVL29:
 391              	.L24:
 392              	.LBB4:
 351:Analyzer.c    ****     }
 393              		.loc 1 351 0
 394 0020 01AC     		add	r4, sp, #4
ARM GAS  C:\Users\divya\AppData\Local\Temp\cc2nBUBk.s 			page 16


 395 0022 094D     		ldr	r5, .L27+4
 396 0024 0FCD     		ldmia	r5!, {r0, r1, r2, r3}
 397              	.LVL30:
 398 0026 0FC4     		stmia	r4!, {r0, r1, r2, r3}
 399 0028 2B68     		ldr	r3, [r5]
 400 002a 2360     		str	r3, [r4]
 401 002c 05E0     		b	.L25
 402              	.LVL31:
 403              	.L23:
 404              	.LBE4:
 405              	.LBB5:
 355:Analyzer.c    ****     }
 406              		.loc 1 355 0
 407 002e 01AC     		add	r4, sp, #4
 408 0030 064D     		ldr	r5, .L27+8
 409 0032 0FCD     		ldmia	r5!, {r0, r1, r2, r3}
 410              	.LVL32:
 411 0034 0FC4     		stmia	r4!, {r0, r1, r2, r3}
 412 0036 2B68     		ldr	r3, [r5]
 413 0038 2360     		str	r3, [r4]
 414              	.L25:
 415              	.LBE5:
 358:Analyzer.c    **** 
 416              		.loc 1 358 0
 417 003a 01A8     		add	r0, sp, #4
 418 003c FFF7FEFF 		bl	UART_LOG_PutString
 419              	.LVL33:
 360:Analyzer.c    **** 
 420              		.loc 1 360 0
 421 0040 0FB0     		add	sp, sp, #60
 422              		.cfi_def_cfa_offset 12
 423              		@ sp needed
 424 0042 30BD     		pop	{r4, r5, pc}
 425              	.L28:
 426              		.align	2
 427              	.L27:
 428 0044 04000000 		.word	.LC1
 429 0048 18000000 		.word	.LC2
 430 004c 2C000000 		.word	.LC3
 431              		.cfi_endproc
 432              	.LFE69:
 433              		.size	Analyzer_printStatus, .-Analyzer_printStatus
 434              		.section	.text.test_cycle_counter,"ax",%progbits
 435              		.align	2
 436              		.global	test_cycle_counter
 437              		.thumb
 438              		.thumb_func
 439              		.type	test_cycle_counter, %function
 440              	test_cycle_counter:
 441              	.LFB70:
 364:Analyzer.c    ****     DWT->CYCCNT = 0; // Reset counter
 442              		.loc 1 364 0
 443              		.cfi_startproc
 444              		@ args = 0, pretend = 0, frame = 24
 445              		@ frame_needed = 0, uses_anonymous_args = 0
 446 0000 00B5     		push	{lr}
 447              		.cfi_def_cfa_offset 4
ARM GAS  C:\Users\divya\AppData\Local\Temp\cc2nBUBk.s 			page 17


 448              		.cfi_offset 14, -4
 449 0002 87B0     		sub	sp, sp, #28
 450              		.cfi_def_cfa_offset 32
 365:Analyzer.c    ****     for (volatile int i = 0; i < 100000; i++) {
 451              		.loc 1 365 0
 452 0004 0023     		movs	r3, #0
 453 0006 0D4A     		ldr	r2, .L33
 454 0008 5360     		str	r3, [r2, #4]
 455              	.LBB6:
 366:Analyzer.c    ****         // Just a busy loop
 456              		.loc 1 366 0
 457 000a 0093     		str	r3, [sp]
 458 000c 02E0     		b	.L30
 459              	.L31:
 366:Analyzer.c    ****         // Just a busy loop
 460              		.loc 1 366 0 is_stmt 0 discriminator 3
 461 000e 009B     		ldr	r3, [sp]
 462 0010 0133     		adds	r3, r3, #1
 463 0012 0093     		str	r3, [sp]
 464              	.L30:
 366:Analyzer.c    ****         // Just a busy loop
 465              		.loc 1 366 0 discriminator 1
 466 0014 009A     		ldr	r2, [sp]
 467 0016 0A4B     		ldr	r3, .L33+4
 468 0018 9A42     		cmp	r2, r3
 469 001a F8DD     		ble	.L31
 470              	.LBE6:
 369:Analyzer.c    ****     char buffer[20];
 471              		.loc 1 369 0 is_stmt 1
 472 001c 074B     		ldr	r3, .L33
 473 001e 5868     		ldr	r0, [r3, #4]
 474              	.LVL34:
 371:Analyzer.c    ****     UART_LOG_PutString(buffer);
 475              		.loc 1 371 0
 476 0020 0A22     		movs	r2, #10
 477 0022 01A9     		add	r1, sp, #4
 478 0024 FFF7FEFF 		bl	utoa
 479              	.LVL35:
 372:Analyzer.c    ****     UART_LOG_PutString("\r\n");
 480              		.loc 1 372 0
 481 0028 01A8     		add	r0, sp, #4
 482 002a FFF7FEFF 		bl	UART_LOG_PutString
 483              	.LVL36:
 373:Analyzer.c    **** }
 484              		.loc 1 373 0
 485 002e 0548     		ldr	r0, .L33+8
 486 0030 FFF7FEFF 		bl	UART_LOG_PutString
 487              	.LVL37:
 374:Analyzer.c    **** void REDLED_START()
 488              		.loc 1 374 0
 489 0034 07B0     		add	sp, sp, #28
 490              		.cfi_def_cfa_offset 4
 491              		@ sp needed
 492 0036 5DF804FB 		ldr	pc, [sp], #4
 493              	.L34:
 494 003a 00BF     		.align	2
 495              	.L33:
ARM GAS  C:\Users\divya\AppData\Local\Temp\cc2nBUBk.s 			page 18


 496 003c 001000E0 		.word	-536866816
 497 0040 9F860100 		.word	99999
 498 0044 00000000 		.word	.LC0
 499              		.cfi_endproc
 500              	.LFE70:
 501              		.size	test_cycle_counter, .-test_cycle_counter
 502              		.section	.text.REDLED_START,"ax",%progbits
 503              		.align	2
 504              		.global	REDLED_START
 505              		.thumb
 506              		.thumb_func
 507              		.type	REDLED_START, %function
 508              	REDLED_START:
 509              	.LFB71:
 376:Analyzer.c    ****     Pin_LEDRED_Write(1);
 510              		.loc 1 376 0
 511              		.cfi_startproc
 512              		@ args = 0, pretend = 0, frame = 0
 513              		@ frame_needed = 0, uses_anonymous_args = 0
 514 0000 08B5     		push	{r3, lr}
 515              		.cfi_def_cfa_offset 8
 516              		.cfi_offset 3, -8
 517              		.cfi_offset 14, -4
 377:Analyzer.c    **** }
 518              		.loc 1 377 0
 519 0002 0120     		movs	r0, #1
 520 0004 FFF7FEFF 		bl	Pin_LEDRED_Write
 521              	.LVL38:
 522 0008 08BD     		pop	{r3, pc}
 523              		.cfi_endproc
 524              	.LFE71:
 525              		.size	REDLED_START, .-REDLED_START
 526 000a 00BF     		.section	.text.GREEN_LED_START,"ax",%progbits
 527              		.align	2
 528              		.global	GREEN_LED_START
 529              		.thumb
 530              		.thumb_func
 531              		.type	GREEN_LED_START, %function
 532              	GREEN_LED_START:
 533              	.LFB72:
 380:Analyzer.c    ****     Pin_LEDGREEN_Write(1);
 534              		.loc 1 380 0
 535              		.cfi_startproc
 536              		@ args = 0, pretend = 0, frame = 0
 537              		@ frame_needed = 0, uses_anonymous_args = 0
 538 0000 08B5     		push	{r3, lr}
 539              		.cfi_def_cfa_offset 8
 540              		.cfi_offset 3, -8
 541              		.cfi_offset 14, -4
 381:Analyzer.c    **** }
 542              		.loc 1 381 0
 543 0002 0120     		movs	r0, #1
 544 0004 FFF7FEFF 		bl	Pin_LEDGREEN_Write
 545              	.LVL39:
 546 0008 08BD     		pop	{r3, pc}
 547              		.cfi_endproc
 548              	.LFE72:
ARM GAS  C:\Users\divya\AppData\Local\Temp\cc2nBUBk.s 			page 19


 549              		.size	GREEN_LED_START, .-GREEN_LED_START
 550 000a 00BF     		.section	.text.YELLOWLED_START,"ax",%progbits
 551              		.align	2
 552              		.global	YELLOWLED_START
 553              		.thumb
 554              		.thumb_func
 555              		.type	YELLOWLED_START, %function
 556              	YELLOWLED_START:
 557              	.LFB73:
 384:Analyzer.c    ****     Pin_LEDYELLOW_Write(1);
 558              		.loc 1 384 0
 559              		.cfi_startproc
 560              		@ args = 0, pretend = 0, frame = 0
 561              		@ frame_needed = 0, uses_anonymous_args = 0
 562 0000 08B5     		push	{r3, lr}
 563              		.cfi_def_cfa_offset 8
 564              		.cfi_offset 3, -8
 565              		.cfi_offset 14, -4
 385:Analyzer.c    **** }
 566              		.loc 1 385 0
 567 0002 0120     		movs	r0, #1
 568 0004 FFF7FEFF 		bl	Pin_LEDYELLOW_Write
 569              	.LVL40:
 570 0008 08BD     		pop	{r3, pc}
 571              		.cfi_endproc
 572              	.LFE73:
 573              		.size	YELLOWLED_START, .-YELLOWLED_START
 574 000a 00BF     		.section	.text.Analyzer_Start,"ax",%progbits
 575              		.align	2
 576              		.global	Analyzer_Start
 577              		.thumb
 578              		.thumb_func
 579              		.type	Analyzer_Start, %function
 580              	Analyzer_Start:
 581              	.LFB65:
  73:Analyzer.c    ****     char StrMsg[50];
 582              		.loc 1 73 0
 583              		.cfi_startproc
 584              		@ args = 0, pretend = 0, frame = 56
 585              		@ frame_needed = 0, uses_anonymous_args = 0
 586              	.LVL41:
 587 0000 10B5     		push	{r4, lr}
 588              		.cfi_def_cfa_offset 8
 589              		.cfi_offset 4, -8
 590              		.cfi_offset 14, -4
 591 0002 8EB0     		sub	sp, sp, #56
 592              		.cfi_def_cfa_offset 64
 593 0004 0446     		mov	r4, r0
  76:Analyzer.c    ****     {
 594              		.loc 1 76 0
 595 0006 437E     		ldrb	r3, [r0, #25]	@ zero_extendqisi2
 596 0008 022B     		cmp	r3, #2
 597 000a 23D1     		bne	.L42
  76:Analyzer.c    ****     {
 598              		.loc 1 76 0 is_stmt 0 discriminator 1
 599 000c 027E     		ldrb	r2, [r0, #24]	@ zero_extendqisi2
 600 000e 012A     		cmp	r2, #1
ARM GAS  C:\Users\divya\AppData\Local\Temp\cc2nBUBk.s 			page 20


 601 0010 20D8     		bhi	.L42
  79:Analyzer.c    ****         utoa(me->StartCount,StrMsg,10);
 602              		.loc 1 79 0 is_stmt 1
 603 0012 274B     		ldr	r3, .L51
 604 0014 5868     		ldr	r0, [r3, #4]
 605              	.LVL42:
 606 0016 2062     		str	r0, [r4, #32]
  80:Analyzer.c    ****         UART_LOG_PutString(StrMsg);
 607              		.loc 1 80 0
 608 0018 0A22     		movs	r2, #10
 609 001a 01A9     		add	r1, sp, #4
 610 001c FFF7FEFF 		bl	utoa
 611              	.LVL43:
  81:Analyzer.c    ****         UART_LOG_PutString("\r\n");
 612              		.loc 1 81 0
 613 0020 01A8     		add	r0, sp, #4
 614 0022 FFF7FEFF 		bl	UART_LOG_PutString
 615              	.LVL44:
  82:Analyzer.c    ****         
 616              		.loc 1 82 0
 617 0026 2348     		ldr	r0, .L51+4
 618 0028 FFF7FEFF 		bl	UART_LOG_PutString
 619              	.LVL45:
  84:Analyzer.c    ****         REDLED_START(1);
 620              		.loc 1 84 0
 621 002c 2378     		ldrb	r3, [r4]	@ zero_extendqisi2
 622 002e 012B     		cmp	r3, #1
 623 0030 03D1     		bne	.L43
  85:Analyzer.c    ****         else if(me->id == GREEN_LED)
 624              		.loc 1 85 0
 625 0032 0120     		movs	r0, #1
 626 0034 FFF7FEFF 		bl	REDLED_START
 627              	.LVL46:
 628 0038 08E0     		b	.L44
 629              	.L43:
  86:Analyzer.c    ****         GREEN_LED_START();
 630              		.loc 1 86 0
 631 003a 022B     		cmp	r3, #2
 632 003c 02D1     		bne	.L45
  87:Analyzer.c    ****         else if(me->id == YELLOW_LED)
 633              		.loc 1 87 0
 634 003e FFF7FEFF 		bl	GREEN_LED_START
 635              	.LVL47:
 636 0042 03E0     		b	.L44
 637              	.L45:
  88:Analyzer.c    ****         YELLOWLED_START();
 638              		.loc 1 88 0
 639 0044 032B     		cmp	r3, #3
 640 0046 01D1     		bne	.L44
  89:Analyzer.c    ****         
 641              		.loc 1 89 0
 642 0048 FFF7FEFF 		bl	YELLOWLED_START
 643              	.LVL48:
 644              	.L44:
  91:Analyzer.c    ****         me->Status = STATUS_RUNNING;
 645              		.loc 1 91 0
 646 004c 0023     		movs	r3, #0
ARM GAS  C:\Users\divya\AppData\Local\Temp\cc2nBUBk.s 			page 21


 647 004e A362     		str	r3, [r4, #40]
  92:Analyzer.c    ****         //sprintf(StrMsg,"Analyzer %s is Running",me->name);
 648              		.loc 1 92 0
 649 0050 6376     		strb	r3, [r4, #25]
 650 0052 2AE0     		b	.L41
 651              	.LVL49:
 652              	.L42:
  96:Analyzer.c    ****     {
 653              		.loc 1 96 0
 654 0054 022B     		cmp	r3, #2
 655 0056 28D1     		bne	.L41
  96:Analyzer.c    ****     {
 656              		.loc 1 96 0 is_stmt 0 discriminator 1
 657 0058 237E     		ldrb	r3, [r4, #24]	@ zero_extendqisi2
 658 005a 023B     		subs	r3, r3, #2
 659 005c DBB2     		uxtb	r3, r3
 660 005e 012B     		cmp	r3, #1
 661 0060 23D8     		bhi	.L41
  98:Analyzer.c    ****         me->totalCycle = 0;
 662              		.loc 1 98 0 is_stmt 1
 663 0062 FFF7FEFF 		bl	CySysTickEnable
 664              	.LVL50:
  99:Analyzer.c    ****         isPaused = 0;
 665              		.loc 1 99 0
 666 0066 0022     		movs	r2, #0
 667 0068 A262     		str	r2, [r4, #40]
 100:Analyzer.c    ****         me->StartCount = timer;
 668              		.loc 1 100 0
 669 006a 134B     		ldr	r3, .L51+8
 670 006c 5A60     		str	r2, [r3, #4]
 101:Analyzer.c    ****         
 671              		.loc 1 101 0
 672 006e 1868     		ldr	r0, [r3]
 673 0070 2062     		str	r0, [r4, #32]
 103:Analyzer.c    ****         UART_LOG_PutString(StrMsg);
 674              		.loc 1 103 0
 675 0072 0A22     		movs	r2, #10
 676 0074 01A9     		add	r1, sp, #4
 677 0076 FFF7FEFF 		bl	utoa
 678              	.LVL51:
 104:Analyzer.c    ****         UART_LOG_PutString("\r\n");
 679              		.loc 1 104 0
 680 007a 01A8     		add	r0, sp, #4
 681 007c FFF7FEFF 		bl	UART_LOG_PutString
 682              	.LVL52:
 105:Analyzer.c    ****         
 683              		.loc 1 105 0
 684 0080 0C48     		ldr	r0, .L51+4
 685 0082 FFF7FEFF 		bl	UART_LOG_PutString
 686              	.LVL53:
 107:Analyzer.c    ****         REDLED_START(1);
 687              		.loc 1 107 0
 688 0086 2378     		ldrb	r3, [r4]	@ zero_extendqisi2
 689 0088 012B     		cmp	r3, #1
 690 008a 03D1     		bne	.L47
 108:Analyzer.c    ****         else if(me->id == GREEN_LED)
 691              		.loc 1 108 0
ARM GAS  C:\Users\divya\AppData\Local\Temp\cc2nBUBk.s 			page 22


 692 008c 0120     		movs	r0, #1
 693 008e FFF7FEFF 		bl	REDLED_START
 694              	.LVL54:
 695 0092 08E0     		b	.L48
 696              	.L47:
 109:Analyzer.c    ****         GREEN_LED_START();
 697              		.loc 1 109 0
 698 0094 022B     		cmp	r3, #2
 699 0096 02D1     		bne	.L49
 110:Analyzer.c    ****         else if(me->id == YELLOW_LED)
 700              		.loc 1 110 0
 701 0098 FFF7FEFF 		bl	GREEN_LED_START
 702              	.LVL55:
 703 009c 03E0     		b	.L48
 704              	.L49:
 111:Analyzer.c    ****         YELLOWLED_START();
 705              		.loc 1 111 0
 706 009e 032B     		cmp	r3, #3
 707 00a0 01D1     		bne	.L48
 112:Analyzer.c    ****         
 708              		.loc 1 112 0
 709 00a2 FFF7FEFF 		bl	YELLOWLED_START
 710              	.LVL56:
 711              	.L48:
 114:Analyzer.c    ****     }
 712              		.loc 1 114 0
 713 00a6 0023     		movs	r3, #0
 714 00a8 6376     		strb	r3, [r4, #25]
 715              	.L41:
 117:Analyzer.c    **** 
 716              		.loc 1 117 0
 717 00aa 0EB0     		add	sp, sp, #56
 718              		.cfi_def_cfa_offset 8
 719              		@ sp needed
 720 00ac 10BD     		pop	{r4, pc}
 721              	.LVL57:
 722              	.L52:
 723 00ae 00BF     		.align	2
 724              	.L51:
 725 00b0 001000E0 		.word	-536866816
 726 00b4 00000000 		.word	.LC0
 727 00b8 00000000 		.word	.LANCHOR0
 728              		.cfi_endproc
 729              	.LFE65:
 730              		.size	Analyzer_Start, .-Analyzer_Start
 731              		.section	.text.REDLED_STOP,"ax",%progbits
 732              		.align	2
 733              		.global	REDLED_STOP
 734              		.thumb
 735              		.thumb_func
 736              		.type	REDLED_STOP, %function
 737              	REDLED_STOP:
 738              	.LFB74:
 388:Analyzer.c    ****     Pin_LEDRED_Write(0);
 739              		.loc 1 388 0
 740              		.cfi_startproc
 741              		@ args = 0, pretend = 0, frame = 0
ARM GAS  C:\Users\divya\AppData\Local\Temp\cc2nBUBk.s 			page 23


 742              		@ frame_needed = 0, uses_anonymous_args = 0
 743 0000 08B5     		push	{r3, lr}
 744              		.cfi_def_cfa_offset 8
 745              		.cfi_offset 3, -8
 746              		.cfi_offset 14, -4
 389:Analyzer.c    **** }
 747              		.loc 1 389 0
 748 0002 0020     		movs	r0, #0
 749 0004 FFF7FEFF 		bl	Pin_LEDRED_Write
 750              	.LVL58:
 751 0008 08BD     		pop	{r3, pc}
 752              		.cfi_endproc
 753              	.LFE74:
 754              		.size	REDLED_STOP, .-REDLED_STOP
 755 000a 00BF     		.section	.text.GREEN_LED_STOP,"ax",%progbits
 756              		.align	2
 757              		.global	GREEN_LED_STOP
 758              		.thumb
 759              		.thumb_func
 760              		.type	GREEN_LED_STOP, %function
 761              	GREEN_LED_STOP:
 762              	.LFB75:
 392:Analyzer.c    ****     Pin_LEDGREEN_Write(0);
 763              		.loc 1 392 0
 764              		.cfi_startproc
 765              		@ args = 0, pretend = 0, frame = 0
 766              		@ frame_needed = 0, uses_anonymous_args = 0
 767 0000 08B5     		push	{r3, lr}
 768              		.cfi_def_cfa_offset 8
 769              		.cfi_offset 3, -8
 770              		.cfi_offset 14, -4
 393:Analyzer.c    **** }
 771              		.loc 1 393 0
 772 0002 0020     		movs	r0, #0
 773 0004 FFF7FEFF 		bl	Pin_LEDGREEN_Write
 774              	.LVL59:
 775 0008 08BD     		pop	{r3, pc}
 776              		.cfi_endproc
 777              	.LFE75:
 778              		.size	GREEN_LED_STOP, .-GREEN_LED_STOP
 779 000a 00BF     		.section	.text.YELLOWLED_STOP,"ax",%progbits
 780              		.align	2
 781              		.global	YELLOWLED_STOP
 782              		.thumb
 783              		.thumb_func
 784              		.type	YELLOWLED_STOP, %function
 785              	YELLOWLED_STOP:
 786              	.LFB76:
 396:Analyzer.c    ****     Pin_LEDYELLOW_Write(0);
 787              		.loc 1 396 0
 788              		.cfi_startproc
 789              		@ args = 0, pretend = 0, frame = 0
 790              		@ frame_needed = 0, uses_anonymous_args = 0
 791 0000 08B5     		push	{r3, lr}
 792              		.cfi_def_cfa_offset 8
 793              		.cfi_offset 3, -8
 794              		.cfi_offset 14, -4
ARM GAS  C:\Users\divya\AppData\Local\Temp\cc2nBUBk.s 			page 24


 397:Analyzer.c    **** }
 795              		.loc 1 397 0
 796 0002 0020     		movs	r0, #0
 797 0004 FFF7FEFF 		bl	Pin_LEDYELLOW_Write
 798              	.LVL60:
 799 0008 08BD     		pop	{r3, pc}
 800              		.cfi_endproc
 801              	.LFE76:
 802              		.size	YELLOWLED_STOP, .-YELLOWLED_STOP
 803 000a 00BF     		.section	.text.Analyzer_Stop,"ax",%progbits
 804              		.align	2
 805              		.global	Analyzer_Stop
 806              		.thumb
 807              		.thumb_func
 808              		.type	Analyzer_Stop, %function
 809              	Analyzer_Stop:
 810              	.LFB68:
 251:Analyzer.c    ****     char StrMsg[50];  // Increased buffer size for safety
 811              		.loc 1 251 0
 812              		.cfi_startproc
 813              		@ args = 0, pretend = 0, frame = 56
 814              		@ frame_needed = 0, uses_anonymous_args = 0
 815              	.LVL61:
 254:Analyzer.c    ****     {
 816              		.loc 1 254 0
 817 0000 437E     		ldrb	r3, [r0, #25]	@ zero_extendqisi2
 818 0002 012B     		cmp	r3, #1
 819 0004 7BD8     		bhi	.L73
 251:Analyzer.c    ****     char StrMsg[50];  // Increased buffer size for safety
 820              		.loc 1 251 0
 821 0006 30B5     		push	{r4, r5, lr}
 822              		.cfi_def_cfa_offset 12
 823              		.cfi_offset 4, -12
 824              		.cfi_offset 5, -8
 825              		.cfi_offset 14, -4
 826 0008 8FB0     		sub	sp, sp, #60
 827              		.cfi_def_cfa_offset 72
 828 000a 0446     		mov	r4, r0
 257:Analyzer.c    ****         {
 829              		.loc 1 257 0
 830 000c 037E     		ldrb	r3, [r0, #24]	@ zero_extendqisi2
 831 000e 012B     		cmp	r3, #1
 832 0010 38D8     		bhi	.L61
 259:Analyzer.c    **** 
 833              		.loc 1 259 0
 834 0012 3B4B     		ldr	r3, .L74
 835 0014 5868     		ldr	r0, [r3, #4]
 836              	.LVL62:
 837 0016 E061     		str	r0, [r4, #28]
 262:Analyzer.c    ****             UART_LOG_PutString(StrMsg);
 838              		.loc 1 262 0
 839 0018 0A22     		movs	r2, #10
 840 001a 01A9     		add	r1, sp, #4
 841 001c FFF7FEFF 		bl	utoa
 842              	.LVL63:
 263:Analyzer.c    ****             UART_LOG_PutString("\r\n");
 843              		.loc 1 263 0
ARM GAS  C:\Users\divya\AppData\Local\Temp\cc2nBUBk.s 			page 25


 844 0020 01A8     		add	r0, sp, #4
 845 0022 FFF7FEFF 		bl	UART_LOG_PutString
 846              	.LVL64:
 264:Analyzer.c    ****             
 847              		.loc 1 264 0
 848 0026 3748     		ldr	r0, .L74+4
 849 0028 FFF7FEFF 		bl	UART_LOG_PutString
 850              	.LVL65:
 266:Analyzer.c    ****                 REDLED_STOP();
 851              		.loc 1 266 0
 852 002c 2378     		ldrb	r3, [r4]	@ zero_extendqisi2
 853 002e 012B     		cmp	r3, #1
 854 0030 02D1     		bne	.L62
 267:Analyzer.c    ****             else if (me->id == GREEN_LED)
 855              		.loc 1 267 0
 856 0032 FFF7FEFF 		bl	REDLED_STOP
 857              	.LVL66:
 858 0036 08E0     		b	.L63
 859              	.L62:
 268:Analyzer.c    ****                 GREEN_LED_STOP();
 860              		.loc 1 268 0
 861 0038 022B     		cmp	r3, #2
 862 003a 02D1     		bne	.L64
 269:Analyzer.c    ****             else if (me->id == YELLOW_LED)
 863              		.loc 1 269 0
 864 003c FFF7FEFF 		bl	GREEN_LED_STOP
 865              	.LVL67:
 866 0040 03E0     		b	.L63
 867              	.L64:
 270:Analyzer.c    ****                 YELLOWLED_STOP();
 868              		.loc 1 270 0
 869 0042 032B     		cmp	r3, #3
 870 0044 01D1     		bne	.L63
 271:Analyzer.c    **** 
 871              		.loc 1 271 0
 872 0046 FFF7FEFF 		bl	YELLOWLED_STOP
 873              	.LVL68:
 874              	.L63:
 274:Analyzer.c    ****             {
 875              		.loc 1 274 0
 876 004a 637E     		ldrb	r3, [r4, #25]	@ zero_extendqisi2
 877 004c 33B9     		cbnz	r3, .L65
 276:Analyzer.c    ****             }
 878              		.loc 1 276 0
 879 004e E369     		ldr	r3, [r4, #28]
 880 0050 226A     		ldr	r2, [r4, #32]
 881 0052 9B1A     		subs	r3, r3, r2
 882 0054 A26A     		ldr	r2, [r4, #40]
 883 0056 1344     		add	r3, r3, r2
 884 0058 A362     		str	r3, [r4, #40]
 885 005a 05E0     		b	.L66
 886              	.L65:
 280:Analyzer.c    ****             }
 887              		.loc 1 280 0
 888 005c 636A     		ldr	r3, [r4, #36]
 889 005e 226A     		ldr	r2, [r4, #32]
 890 0060 9B1A     		subs	r3, r3, r2
ARM GAS  C:\Users\divya\AppData\Local\Temp\cc2nBUBk.s 			page 26


 891 0062 A26A     		ldr	r2, [r4, #40]
 892 0064 1344     		add	r3, r3, r2
 893 0066 A362     		str	r3, [r4, #40]
 894              	.L66:
 284:Analyzer.c    ****             UART_LOG_PutString(StrMsg);
 895              		.loc 1 284 0
 896 0068 0A22     		movs	r2, #10
 897 006a 01A9     		add	r1, sp, #4
 898 006c A06A     		ldr	r0, [r4, #40]
 899 006e FFF7FEFF 		bl	utoa
 900              	.LVL69:
 285:Analyzer.c    ****             UART_LOG_PutString("\r\n");
 901              		.loc 1 285 0
 902 0072 01A8     		add	r0, sp, #4
 903 0074 FFF7FEFF 		bl	UART_LOG_PutString
 904              	.LVL70:
 286:Analyzer.c    **** 
 905              		.loc 1 286 0
 906 0078 2248     		ldr	r0, .L74+4
 907 007a FFF7FEFF 		bl	UART_LOG_PutString
 908              	.LVL71:
 297:Analyzer.c    ****         }
 909              		.loc 1 297 0
 910 007e 0223     		movs	r3, #2
 911 0080 6376     		strb	r3, [r4, #25]
 912 0082 3AE0     		b	.L59
 913              	.LVL72:
 914              	.L61:
 300:Analyzer.c    ****         {
 915              		.loc 1 300 0
 916 0084 023B     		subs	r3, r3, #2
 917 0086 DBB2     		uxtb	r3, r3
 918 0088 012B     		cmp	r3, #1
 919 008a 36D8     		bhi	.L59
 302:Analyzer.c    ****             
 920              		.loc 1 302 0
 921 008c 1E4D     		ldr	r5, .L74+8
 922 008e 2868     		ldr	r0, [r5]
 923              	.LVL73:
 924 0090 6062     		str	r0, [r4, #36]
 304:Analyzer.c    ****             UART_LOG_PutString(StrMsg);
 925              		.loc 1 304 0
 926 0092 0A22     		movs	r2, #10
 927 0094 01A9     		add	r1, sp, #4
 928 0096 FFF7FEFF 		bl	utoa
 929              	.LVL74:
 305:Analyzer.c    ****             UART_LOG_PutString("\r\n");
 930              		.loc 1 305 0
 931 009a 01A8     		add	r0, sp, #4
 932 009c FFF7FEFF 		bl	UART_LOG_PutString
 933              	.LVL75:
 306:Analyzer.c    ****             
 934              		.loc 1 306 0
 935 00a0 1848     		ldr	r0, .L74+4
 936 00a2 FFF7FEFF 		bl	UART_LOG_PutString
 937              	.LVL76:
 309:Analyzer.c    ****             {
ARM GAS  C:\Users\divya\AppData\Local\Temp\cc2nBUBk.s 			page 27


 938              		.loc 1 309 0
 939 00a6 6B68     		ldr	r3, [r5, #4]
 940 00a8 012B     		cmp	r3, #1
 941 00aa 02D1     		bne	.L67
 311:Analyzer.c    ****             }
 942              		.loc 1 311 0
 943 00ac 636A     		ldr	r3, [r4, #36]
 944 00ae A362     		str	r3, [r4, #40]
 945 00b0 05E0     		b	.L68
 946              	.L67:
 315:Analyzer.c    ****             }
 947              		.loc 1 315 0
 948 00b2 636A     		ldr	r3, [r4, #36]
 949 00b4 226A     		ldr	r2, [r4, #32]
 950 00b6 9B1A     		subs	r3, r3, r2
 951 00b8 A26A     		ldr	r2, [r4, #40]
 952 00ba 1344     		add	r3, r3, r2
 953 00bc A362     		str	r3, [r4, #40]
 954              	.L68:
 319:Analyzer.c    ****             UART_LOG_PutString(StrMsg);
 955              		.loc 1 319 0
 956 00be 0A22     		movs	r2, #10
 957 00c0 01A9     		add	r1, sp, #4
 958 00c2 A06A     		ldr	r0, [r4, #40]
 959 00c4 FFF7FEFF 		bl	utoa
 960              	.LVL77:
 320:Analyzer.c    ****             UART_LOG_PutString("\r\n");
 961              		.loc 1 320 0
 962 00c8 01A8     		add	r0, sp, #4
 963 00ca FFF7FEFF 		bl	UART_LOG_PutString
 964              	.LVL78:
 321:Analyzer.c    ****             
 965              		.loc 1 321 0
 966 00ce 0D48     		ldr	r0, .L74+4
 967 00d0 FFF7FEFF 		bl	UART_LOG_PutString
 968              	.LVL79:
 326:Analyzer.c    **** 
 969              		.loc 1 326 0
 970 00d4 FFF7FEFF 		bl	CySysTickStop
 971              	.LVL80:
 329:Analyzer.c    ****                 REDLED_STOP();
 972              		.loc 1 329 0
 973 00d8 2378     		ldrb	r3, [r4]	@ zero_extendqisi2
 974 00da 012B     		cmp	r3, #1
 975 00dc 02D1     		bne	.L69
 330:Analyzer.c    ****             else if (me->id == GREEN_LED)
 976              		.loc 1 330 0
 977 00de FFF7FEFF 		bl	REDLED_STOP
 978              	.LVL81:
 979 00e2 08E0     		b	.L70
 980              	.L69:
 331:Analyzer.c    ****                 GREEN_LED_STOP();
 981              		.loc 1 331 0
 982 00e4 022B     		cmp	r3, #2
 983 00e6 02D1     		bne	.L71
 332:Analyzer.c    ****             else if (me->id == YELLOW_LED)
 984              		.loc 1 332 0
ARM GAS  C:\Users\divya\AppData\Local\Temp\cc2nBUBk.s 			page 28


 985 00e8 FFF7FEFF 		bl	GREEN_LED_STOP
 986              	.LVL82:
 987 00ec 03E0     		b	.L70
 988              	.L71:
 333:Analyzer.c    ****                 YELLOWLED_STOP();
 989              		.loc 1 333 0
 990 00ee 032B     		cmp	r3, #3
 991 00f0 01D1     		bne	.L70
 334:Analyzer.c    **** 
 992              		.loc 1 334 0
 993 00f2 FFF7FEFF 		bl	YELLOWLED_STOP
 994              	.LVL83:
 995              	.L70:
 337:Analyzer.c    ****         }
 996              		.loc 1 337 0
 997 00f6 0223     		movs	r3, #2
 998 00f8 6376     		strb	r3, [r4, #25]
 999              	.L59:
 341:Analyzer.c    **** // Tp print the status of Analyzers
 1000              		.loc 1 341 0
 1001 00fa 0FB0     		add	sp, sp, #60
 1002              		.cfi_def_cfa_offset 12
 1003              		@ sp needed
 1004 00fc 30BD     		pop	{r4, r5, pc}
 1005              	.LVL84:
 1006              	.L73:
 1007              		.cfi_def_cfa_offset 0
 1008              		.cfi_restore 4
 1009              		.cfi_restore 5
 1010              		.cfi_restore 14
 1011 00fe 7047     		bx	lr
 1012              	.L75:
 1013              		.align	2
 1014              	.L74:
 1015 0100 001000E0 		.word	-536866816
 1016 0104 00000000 		.word	.LC0
 1017 0108 00000000 		.word	.LANCHOR0
 1018              		.cfi_endproc
 1019              	.LFE68:
 1020              		.size	Analyzer_Stop, .-Analyzer_Stop
 1021              		.global	isPaused
 1022              		.global	timer
 1023              		.section	.rodata.str1.4,"aMS",%progbits,1
 1024              		.align	2
 1025              	.LC0:
 1026 0000 0D0A00   		.ascii	"\015\012\000"
 1027 0003 00       		.space	1
 1028              	.LC1:
 1029 0004 416E616C 		.ascii	"Analyzer is Paused\000"
 1029      797A6572 
 1029      20697320 
 1029      50617573 
 1029      656400
 1030 0017 00       		.space	1
 1031              	.LC2:
 1032 0018 416E616C 		.ascii	"Analyzer is Running\000"
 1032      797A6572 
ARM GAS  C:\Users\divya\AppData\Local\Temp\cc2nBUBk.s 			page 29


 1032      20697320 
 1032      52756E6E 
 1032      696E6700 
 1033              	.LC3:
 1034 002c 416E616C 		.ascii	"Analyzer is Stopped\000"
 1034      797A6572 
 1034      20697320 
 1034      53746F70 
 1034      70656400 
 1035              		.bss
 1036              		.align	2
 1037              		.set	.LANCHOR0,. + 0
 1038              		.type	timer, %object
 1039              		.size	timer, 4
 1040              	timer:
 1041 0000 00000000 		.space	4
 1042              		.type	isPaused, %object
 1043              		.size	isPaused, 4
 1044              	isPaused:
 1045 0004 00000000 		.space	4
 1046              		.text
 1047              	.Letext0:
 1048              		.file 2 "c:\\program files (x86)\\cypress\\psoc creator\\4.4\\psoc creator\\import\\gnu\\arm\\5.4.
 1049              		.file 3 "c:\\program files (x86)\\cypress\\psoc creator\\4.4\\psoc creator\\import\\gnu\\arm\\5.4.
 1050              		.file 4 "Generated_Source\\PSoC5/core_cm3.h"
 1051              		.file 5 "Analyzer.h"
 1052              		.file 6 "<built-in>"
 1053              		.file 7 "Generated_Source\\PSoC5/CyLib.h"
 1054              		.file 8 "c:\\program files (x86)\\cypress\\psoc creator\\4.4\\psoc creator\\import\\gnu\\arm\\5.4.
 1055              		.file 9 "c:\\program files (x86)\\cypress\\psoc creator\\4.4\\psoc creator\\import\\gnu\\arm\\5.4.
 1056              		.file 10 "Generated_Source\\PSoC5/Pin_LEDRED.h"
 1057              		.file 11 "Generated_Source\\PSoC5/Pin_LEDGREEN.h"
 1058              		.file 12 "Generated_Source\\PSoC5/Pin_LEDYELLOW.h"